; Function Attrs: mustprogress uwtable
define void @_ZN7rocksdb13InternalStats24DumpDBMapStatsWriteStallEPSt3mapINSt7__cxx1112basic_stringIcSt11char_traitsIcESaIcEEES7_St4lessIS7_ESaISt4pairIKS7_S7_EEE(ptr nocapture noundef nonnull readonly align 8 dereferenceable(1944) %this, ptr noundef %value) local_unnamed_addr #4 align 2 personality ptr @__gxx_personality_v0 {
entry:
  %name = alloca %"class.std::__cxx11::basic_string", align 8
  %ref.tmp = alloca %"class.std::__cxx11::basic_string", align 8
  br label %for.body4

for.body4:                                        ; preds = %entry, %for.inc
  %cmp3 = phi i1 [ true, %entry ], [ false, %for.inc ]
  %j.010 = phi i32 [ 0, %entry ], [ 1, %for.inc ]
  %call = call noundef i32 @_ZN7rocksdb14InternalDBStatENS_15WriteStallCauseENS_19WriteStallConditionE(i32 noundef 4, i32 noundef %j.010)
  %cmp5 = icmp eq i32 %call, 9
  br i1 %cmp5, label %for.inc, label %if.end

if.end:                                           ; preds = %for.body4
  call void @_ZN7rocksdb22WriteStallStatsMapKeys19CauseConditionCountB5cxx11ENS_15WriteStallCauseENS_19WriteStallConditionE(ptr nonnull sret(%"class.std::__cxx11::basic_string") align 8 %name, i32 noundef 4, i32 noundef %j.010)
  %conv = zext i32 %call to i64
  %arrayidx = getelementptr inbounds [9 x %"struct.std::atomic"], ptr %this, i64 0, i64 %conv
  %0 = load atomic i64, ptr %arrayidx monotonic, align 8
  invoke void @_ZNSt7__cxx119to_stringEm(ptr nonnull sret(%"class.std::__cxx11::basic_string") align 8 %ref.tmp, i64 noundef %0)
          to label %invoke.cont unwind label %lpad

invoke.cont:                                      ; preds = %if.end
  %call9 = invoke noundef nonnull align 8 dereferenceable(32) ptr @_ZNSt3mapINSt7__cxx1112basic_stringIcSt11char_traitsIcESaIcEEES5_St4lessIS5_ESaISt4pairIKS5_S5_EEEixERS9_(ptr noundef nonnull align 8 dereferenceable(48) %value, ptr noundef nonnull align 8 dereferenceable(32) %name)
          to label %invoke.cont8 unwind label %lpad7

invoke.cont8:                                     ; preds = %invoke.cont
  %call10 = call noundef nonnull align 8 dereferenceable(32) ptr @_ZNSt7__cxx1112basic_stringIcSt11char_traitsIcESaIcEEaSEOS4_(ptr noundef nonnull align 8 dereferenceable(32) %call9, ptr noundef nonnull align 8 dereferenceable(32) %ref.tmp) #28
  call void @_ZNSt7__cxx1112basic_stringIcSt11char_traitsIcESaIcEED1Ev(ptr noundef nonnull align 8 dereferenceable(32) %ref.tmp) #28
  call void @_ZNSt7__cxx1112basic_stringIcSt11char_traitsIcESaIcEED1Ev(ptr noundef nonnull align 8 dereferenceable(32) %name) #28
  br label %for.inc

for.inc:                                          ; preds = %for.body4, %invoke.cont8
  br i1 %cmp3, label %for.body4, label %for.end13, !llvm.loop !79

lpad:                                             ; preds = %if.end
  %1 = landingpad { ptr, i32 }
          cleanup
  br label %ehcleanup

lpad7:                                            ; preds = %invoke.cont
  %2 = landingpad { ptr, i32 }
          cleanup
  call void @_ZNSt7__cxx1112basic_stringIcSt11char_traitsIcESaIcEED1Ev(ptr noundef nonnull align 8 dereferenceable(32) %ref.tmp) #28
  br label %ehcleanup

ehcleanup:                                        ; preds = %lpad7, %lpad
  %.pn = phi { ptr, i32 } [ %2, %lpad7 ], [ %1, %lpad ]
  call void @_ZNSt7__cxx1112basic_stringIcSt11char_traitsIcESaIcEED1Ev(ptr noundef nonnull align 8 dereferenceable(32) %name) #28
  resume { ptr, i32 } %.pn

for.end13:                                        ; preds = %for.inc
  ret void
}